target datalayout = "e-m:e-p270:32:32-p271:32:32-p272:64:64-i64:64-i128:128-f80:128-n8:16:32:64-S128"
target triple = "x86_64-pc-linux-gnu"

; Function Attrs: inlinehint nounwind uwtable
define internal i32 @Kit_WordCountOnes(i32 noundef %0) #4 {
  %2 = alloca i32, align 4
  store i32 %0, ptr %2, align 4, !tbaa !3
  %3 = load i32, ptr %2, align 4, !tbaa !3
  %4 = and i32 %3, 1431655765
  %5 = load i32, ptr %2, align 4, !tbaa !3
  %6 = lshr i32 %5, 1
  %7 = and i32 %6, 1431655765
  %8 = add i32 %4, %7
  store i32 %8, ptr %2, align 4, !tbaa !3
  %9 = load i32, ptr %2, align 4, !tbaa !3
  %10 = and i32 %9, 858993459
  %11 = load i32, ptr %2, align 4, !tbaa !3
  %12 = lshr i32 %11, 2
  %13 = and i32 %12, 858993459
  %14 = add i32 %10, %13
  store i32 %14, ptr %2, align 4, !tbaa !3
  %15 = load i32, ptr %2, align 4, !tbaa !3
  %16 = and i32 %15, 252645135
  %17 = load i32, ptr %2, align 4, !tbaa !3
  %18 = lshr i32 %17, 4
  %19 = and i32 %18, 252645135
  %20 = add i32 %16, %19
  store i32 %20, ptr %2, align 4, !tbaa !3
  %21 = load i32, ptr %2, align 4, !tbaa !3
  %22 = and i32 %21, 16711935
  %23 = load i32, ptr %2, align 4, !tbaa !3
  %24 = lshr i32 %23, 8
  %25 = and i32 %24, 16711935
  %26 = add i32 %22, %25
  store i32 %26, ptr %2, align 4, !tbaa !3
  %27 = load i32, ptr %2, align 4, !tbaa !3
  %28 = and i32 %27, 65535
  %29 = load i32, ptr %2, align 4, !tbaa !3
  %30 = lshr i32 %29, 16
  %31 = add i32 %28, %30
  ret i32 %31
}

; Function Attrs: nounwind uwtable
define void @Kit_DsdCompSort(ptr noundef %0, ptr noundef %1, ptr noundef %2, i32 noundef %3, ptr noundef %4) #0 {
  %6 = alloca ptr, align 8
  %7 = alloca ptr, align 8
  %8 = alloca ptr, align 8
  %9 = alloca i32, align 4
  %10 = alloca ptr, align 8
  %11 = alloca [16 x i32], align 16
  %12 = alloca [16 x i32], align 16
  %13 = alloca [16 x i32], align 16
  %14 = alloca i32, align 4
  %15 = alloca i32, align 4
  %16 = alloca i32, align 4
  %17 = alloca i32, align 4
  %18 = alloca i32, align 4
  store ptr %0, ptr %6, align 8, !tbaa !25
  store ptr %1, ptr %7, align 8, !tbaa !25
  store ptr %2, ptr %8, align 8, !tbaa !105
  store i32 %3, ptr %9, align 4, !tbaa !3
  store ptr %4, ptr %10, align 8, !tbaa !25
  call void @llvm.lifetime.start.p0(i64 64, ptr %11) #9
  call void @llvm.lifetime.start.p0(i64 64, ptr %12) #9
  call void @llvm.lifetime.start.p0(i64 64, ptr %13) #9
  call void @llvm.lifetime.start.p0(i64 4, ptr %14) #9
  call void @llvm.lifetime.start.p0(i64 4, ptr %15) #9
  call void @llvm.lifetime.start.p0(i64 4, ptr %16) #9
  call void @llvm.lifetime.start.p0(i64 4, ptr %17) #9
  call void @llvm.lifetime.start.p0(i64 4, ptr %18) #9
  store i32 0, ptr %14, align 4, !tbaa !3
  br label %19

19:                                               ; preds = %85, %5
  %20 = load i32, ptr %14, align 4, !tbaa !3
  %21 = load i32, ptr %9, align 4, !tbaa !3
  %22 = icmp slt i32 %20, %21
  br i1 %22, label %23, label %88

23:                                               ; preds = %19
  %24 = load i32, ptr %14, align 4, !tbaa !3
  %25 = load i32, ptr %14, align 4, !tbaa !3
  %26 = sext i32 %25 to i64
  %27 = getelementptr inbounds [16 x i32], ptr %13, i64 0, i64 %26
  store i32 %24, ptr %27, align 4, !tbaa !3
  %28 = load i32, ptr %14, align 4, !tbaa !3
  %29 = sext i32 %28 to i64
  %30 = getelementptr inbounds [16 x i32], ptr %12, i64 0, i64 %29
  store i32 100000000, ptr %30, align 4, !tbaa !3
  store i32 0, ptr %15, align 4, !tbaa !3
  br label %31

31:                                               ; preds = %72, %23
  %32 = load i32, ptr %15, align 4, !tbaa !3
  %33 = icmp slt i32 %32, 16
  br i1 %33, label %34, label %75

34:                                               ; preds = %31
  %35 = load ptr, ptr %7, align 8, !tbaa !25
  %36 = load i32, ptr %14, align 4, !tbaa !3
  %37 = sext i32 %36 to i64
  %38 = getelementptr inbounds i32, ptr %35, i64 %37
  %39 = load i32, ptr %38, align 4, !tbaa !3
  %40 = load i32, ptr %15, align 4, !tbaa !3
  %41 = shl i32 1, %40
  %42 = and i32 %39, %41
  %43 = icmp ne i32 %42, 0
  br i1 %43, label %44, label %71

44:                                               ; preds = %34
  %45 = load i32, ptr %14, align 4, !tbaa !3
  %46 = sext i32 %45 to i64
  %47 = getelementptr inbounds [16 x i32], ptr %12, i64 0, i64 %46
  %48 = load i32, ptr %47, align 4, !tbaa !3
  %49 = load ptr, ptr %6, align 8, !tbaa !25
  %50 = load i32, ptr %15, align 4, !tbaa !3
  %51 = sext i32 %50 to i64
  %52 = getelementptr inbounds i32, ptr %49, i64 %51
  %53 = load i32, ptr %52, align 4, !tbaa !3
  %54 = icmp slt i32 %48, %53
  br i1 %54, label %55, label %60

55:                                               ; preds = %44
  %56 = load i32, ptr %14, align 4, !tbaa !3
  %57 = sext i32 %56 to i64
  %58 = getelementptr inbounds [16 x i32], ptr %12, i64 0, i64 %57
  %59 = load i32, ptr %58, align 4, !tbaa !3
  br label %66

60:                                               ; preds = %44
  %61 = load ptr, ptr %6, align 8, !tbaa !25
  %62 = load i32, ptr %15, align 4, !tbaa !3
  %63 = sext i32 %62 to i64
  %64 = getelementptr inbounds i32, ptr %61, i64 %63
  %65 = load i32, ptr %64, align 4, !tbaa !3
  br label %66

66:                                               ; preds = %60, %55
  %67 = phi i32 [ %59, %55 ], [ %65, %60 ]
  %68 = load i32, ptr %14, align 4, !tbaa !3
  %69 = sext i32 %68 to i64
  %70 = getelementptr inbounds [16 x i32], ptr %12, i64 0, i64 %69
  store i32 %67, ptr %70, align 4, !tbaa !3
  br label %71

71:                                               ; preds = %66, %34
  br label %72

72:                                               ; preds = %71
  %73 = load i32, ptr %15, align 4, !tbaa !3
  %74 = add nsw i32 %73, 1
  store i32 %74, ptr %15, align 4, !tbaa !3
  br label %31, !llvm.loop !107

75:                                               ; preds = %31
  %76 = load ptr, ptr %7, align 8, !tbaa !25
  %77 = load i32, ptr %14, align 4, !tbaa !3
  %78 = sext i32 %77 to i64
  %79 = getelementptr inbounds i32, ptr %76, i64 %78
  %80 = load i32, ptr %79, align 4, !tbaa !3
  %81 = call i32 @Kit_WordCountOnes(i32 noundef %80)
  %82 = load i32, ptr %14, align 4, !tbaa !3
  %83 = sext i32 %82 to i64
  %84 = getelementptr inbounds [16 x i32], ptr %11, i64 0, i64 %83
  store i32 %81, ptr %84, align 4, !tbaa !3
  br label %85

85:                                               ; preds = %75
  %86 = load i32, ptr %14, align 4, !tbaa !3
  %87 = add nsw i32 %86, 1
  store i32 %87, ptr %14, align 4, !tbaa !3
  br label %19, !llvm.loop !108

88:                                               ; preds = %19
  %89 = getelementptr inbounds [16 x i32], ptr %13, i64 0, i64 0
  %90 = getelementptr inbounds [16 x i32], ptr %12, i64 0, i64 0
  %91 = load i32, ptr %9, align 4, !tbaa !3
  call void @Extra_BubbleSort(ptr noundef %89, ptr noundef %90, i32 noundef %91, i32 noundef 0)
  store i32 -1, ptr %16, align 4, !tbaa !3
  store i32 0, ptr %17, align 4, !tbaa !3
  store i32 0, ptr %18, align 4, !tbaa !3
  store i32 0, ptr %14, align 4, !tbaa !3
  br label %92

92:                                               ; preds = %128, %88
  %93 = load i32, ptr %14, align 4, !tbaa !3
  %94 = load i32, ptr %9, align 4, !tbaa !3
  %95 = icmp slt i32 %93, %94
  br i1 %95, label %96, label %131

96:                                               ; preds = %92
  %97 = load i32, ptr %17, align 4, !tbaa !3
  %98 = load i32, ptr %14, align 4, !tbaa !3
  %99 = sext i32 %98 to i64
  %100 = getelementptr inbounds [16 x i32], ptr %11, i64 0, i64 %99
  %101 = load i32, ptr %100, align 4, !tbaa !3
  %102 = icmp slt i32 %97, %101
  br i1 %102, label %117, label %103

103:                                              ; preds = %96
  %104 = load i32, ptr %17, align 4, !tbaa !3
  %105 = load i32, ptr %14, align 4, !tbaa !3
  %106 = sext i32 %105 to i64
  %107 = getelementptr inbounds [16 x i32], ptr %11, i64 0, i64 %106
  %108 = load i32, ptr %107, align 4, !tbaa !3
  %109 = icmp eq i32 %104, %108
  br i1 %109, label %110, label %127

110:                                              ; preds = %103
  %111 = load i32, ptr %18, align 4, !tbaa !3
  %112 = load i32, ptr %14, align 4, !tbaa !3
  %113 = sext i32 %112 to i64
  %114 = getelementptr inbounds [16 x i32], ptr %12, i64 0, i64 %113
  %115 = load i32, ptr %114, align 4, !tbaa !3
  %116 = icmp slt i32 %111, %115
  br i1 %116, label %117, label %127

117:                                              ; preds = %110, %96
  %118 = load i32, ptr %14, align 4, !tbaa !3
  %119 = sext i32 %118 to i64
  %120 = getelementptr inbounds [16 x i32], ptr %11, i64 0, i64 %119
  %121 = load i32, ptr %120, align 4, !tbaa !3
  store i32 %121, ptr %17, align 4, !tbaa !3
  %122 = load i32, ptr %14, align 4, !tbaa !3
  %123 = sext i32 %122 to i64
  %124 = getelementptr inbounds [16 x i32], ptr %12, i64 0, i64 %123
  %125 = load i32, ptr %124, align 4, !tbaa !3
  store i32 %125, ptr %18, align 4, !tbaa !3
  %126 = load i32, ptr %14, align 4, !tbaa !3
  store i32 %126, ptr %16, align 4, !tbaa !3
  br label %127

127:                                              ; preds = %117, %110, %103
  br label %128

128:                                              ; preds = %127
  %129 = load i32, ptr %14, align 4, !tbaa !3
  %130 = add nsw i32 %129, 1
  store i32 %130, ptr %14, align 4, !tbaa !3
  br label %92, !llvm.loop !109

131:                                              ; preds = %92
  store i32 0, ptr %15, align 4, !tbaa !3
  %132 = load ptr, ptr %8, align 8, !tbaa !105
  %133 = load i32, ptr %16, align 4, !tbaa !3
  %134 = sext i32 %133 to i64
  %135 = getelementptr inbounds i16, ptr %132, i64 %134
  %136 = load i16, ptr %135, align 2, !tbaa !58
  %137 = zext i16 %136 to i32
  %138 = load ptr, ptr %10, align 8, !tbaa !25
  %139 = load i32, ptr %15, align 4, !tbaa !3
  %140 = add nsw i32 %139, 1
  store i32 %140, ptr %15, align 4, !tbaa !3
  %141 = sext i32 %139 to i64
  %142 = getelementptr inbounds i32, ptr %138, i64 %141
  store i32 %137, ptr %142, align 4, !tbaa !3
  store i32 0, ptr %14, align 4, !tbaa !3
  br label %143

143:                                              ; preds = %170, %131
  %144 = load i32, ptr %14, align 4, !tbaa !3
  %145 = load i32, ptr %9, align 4, !tbaa !3
  %146 = icmp slt i32 %144, %145
  br i1 %146, label %147, label %173

147:                                              ; preds = %143
  %148 = load i32, ptr %14, align 4, !tbaa !3
  %149 = sext i32 %148 to i64
  %150 = getelementptr inbounds [16 x i32], ptr %13, i64 0, i64 %149
  %151 = load i32, ptr %150, align 4, !tbaa !3
  %152 = load i32, ptr %16, align 4, !tbaa !3
  %153 = icmp eq i32 %151, %152
  br i1 %153, label %154, label %155

154:                                              ; preds = %147
  br label %170

155:                                              ; preds = %147
  %156 = load ptr, ptr %8, align 8, !tbaa !105
  %157 = load i32, ptr %14, align 4, !tbaa !3
  %158 = sext i32 %157 to i64
  %159 = getelementptr inbounds [16 x i32], ptr %13, i64 0, i64 %158
  %160 = load i32, ptr %159, align 4, !tbaa !3
  %161 = sext i32 %160 to i64
  %162 = getelementptr inbounds i16, ptr %156, i64 %161
  %163 = load i16, ptr %162, align 2, !tbaa !58
  %164 = zext i16 %163 to i32
  %165 = load ptr, ptr %10, align 8, !tbaa !25
  %166 = load i32, ptr %15, align 4, !tbaa !3
  %167 = add nsw i32 %166, 1
  store i32 %167, ptr %15, align 4, !tbaa !3
  %168 = sext i32 %166 to i64
  %169 = getelementptr inbounds i32, ptr %165, i64 %168
  store i32 %164, ptr %169, align 4, !tbaa !3
  br label %170

170:                                              ; preds = %155, %154
  %171 = load i32, ptr %14, align 4, !tbaa !3
  %172 = add nsw i32 %171, 1
  store i32 %172, ptr %14, align 4, !tbaa !3
  br label %143, !llvm.loop !110

173:                                              ; preds = %143
  call void @llvm.lifetime.end.p0(i64 4, ptr %18) #9
  call void @llvm.lifetime.end.p0(i64 4, ptr %17) #9
  call void @llvm.lifetime.end.p0(i64 4, ptr %16) #9
  call void @llvm.lifetime.end.p0(i64 4, ptr %15) #9
  call void @llvm.lifetime.end.p0(i64 4, ptr %14) #9
  call void @llvm.lifetime.end.p0(i64 64, ptr %13) #9
  call void @llvm.lifetime.end.p0(i64 64, ptr %12) #9
  call void @llvm.lifetime.end.p0(i64 64, ptr %11) #9
  ret void
}