; Function Attrs: nounwind uwtable
define void @Kit_DsdCompSort(ptr noundef readonly captures(none) %0, ptr noundef readonly captures(none) %1, ptr noundef readonly captures(none) %2, i32 noundef %3, ptr noundef writeonly captures(none) %4) local_unnamed_addr #0 {
  %6 = alloca [16 x i32], align 16
  %7 = alloca [16 x i32], align 16
  %8 = alloca [16 x i32], align 16
  call void @llvm.lifetime.start.p0(i64 64, ptr nonnull %6) #27
  call void @llvm.lifetime.start.p0(i64 64, ptr nonnull %7) #27
  call void @llvm.lifetime.start.p0(i64 64, ptr nonnull %8) #27
  %9 = icmp sgt i32 %3, 0
  br i1 %9, label %.lr.ph.preheader, label %._crit_edge.thread

._crit_edge.thread:                               ; preds = %5
  call void @Extra_BubbleSort(ptr noundef nonnull %8, ptr noundef nonnull %7, i32 noundef %3, i32 noundef 0) #27
  %10 = getelementptr inbounds i8, ptr %2, i64 -2
  %11 = load i16, ptr %10, align 2, !tbaa !49
  %12 = zext i16 %11 to i32
  store i32 %12, ptr %4, align 4, !tbaa !20
  br label %._crit_edge73

.lr.ph.preheader:                                 ; preds = %5
  %wide.trip.count = zext nneg i32 %3 to i64
  br label %.lr.ph

.lr.ph:                                           ; preds = %.lr.ph.preheader, %28
  %indvars.iv75 = phi i64 [ 0, %.lr.ph.preheader ], [ %indvars.iv.next76, %28 ]
  %13 = getelementptr inbounds nuw [16 x i32], ptr %8, i64 0, i64 %indvars.iv75
  %14 = trunc nuw nsw i64 %indvars.iv75 to i32
  store i32 %14, ptr %13, align 4, !tbaa !20
  %15 = getelementptr inbounds nuw [16 x i32], ptr %7, i64 0, i64 %indvars.iv75
  store i32 100000000, ptr %15, align 4, !tbaa !20
  %16 = getelementptr inbounds nuw i32, ptr %1, i64 %indvars.iv75
  %17 = load i32, ptr %16, align 4, !tbaa !20
  br label %18

18:                                               ; preds = %.lr.ph, %26
  %19 = phi i32 [ 100000000, %.lr.ph ], [ %27, %26 ]
  %indvars.iv = phi i64 [ 0, %.lr.ph ], [ %indvars.iv.next, %26 ]
  %20 = trunc nuw nsw i64 %indvars.iv to i32
  %21 = shl nuw nsw i32 1, %20
  %22 = and i32 %17, %21
  %.not = icmp eq i32 %22, 0
  br i1 %.not, label %26, label %23

23:                                               ; preds = %18
  %24 = getelementptr inbounds nuw i32, ptr %0, i64 %indvars.iv
  %25 = load i32, ptr %24, align 4, !tbaa !20
  %. = tail call i32 @llvm.smin.i32(i32 %19, i32 %25)
  store i32 %., ptr %15, align 4, !tbaa !20
  br label %26

26:                                               ; preds = %18, %23
  %27 = phi i32 [ %19, %18 ], [ %., %23 ]
  %indvars.iv.next = add nuw nsw i64 %indvars.iv, 1
  %exitcond.not = icmp eq i64 %indvars.iv.next, 16
  br i1 %exitcond.not, label %28, label %18, !llvm.loop !96

28:                                               ; preds = %26
  %29 = and i32 %17, 1431655765
  %30 = lshr i32 %17, 1
  %31 = and i32 %30, 1431655765
  %32 = add nuw i32 %31, %29
  %33 = and i32 %32, 858993459
  %34 = lshr i32 %32, 2
  %35 = and i32 %34, 858993459
  %36 = add nuw nsw i32 %35, %33
  %37 = and i32 %36, 117901063
  %38 = lshr i32 %36, 4
  %39 = and i32 %38, 117901063
  %40 = add nuw nsw i32 %39, %37
  %41 = and i32 %40, 983055
  %42 = lshr i32 %40, 8
  %43 = and i32 %42, 983055
  %44 = add nuw nsw i32 %43, %41
  %45 = and i32 %44, 31
  %46 = lshr i32 %44, 16
  %47 = add nuw nsw i32 %45, %46
  %48 = getelementptr inbounds nuw [16 x i32], ptr %6, i64 0, i64 %indvars.iv75
  store i32 %47, ptr %48, align 4, !tbaa !20
  %indvars.iv.next76 = add nuw nsw i64 %indvars.iv75, 1
  %exitcond78.not = icmp eq i64 %indvars.iv.next76, %wide.trip.count
  br i1 %exitcond78.not, label %._crit_edge, label %.lr.ph, !llvm.loop !97

._crit_edge:                                      ; preds = %28
  call void @Extra_BubbleSort(ptr noundef nonnull %8, ptr noundef nonnull %7, i32 noundef %3, i32 noundef 0) #27
  %wide.trip.count82 = zext nneg i32 %3 to i64
  br label %.lr.ph67

.lr.ph67:                                         ; preds = %._crit_edge, %61
  %indvars.iv79 = phi i64 [ 0, %._crit_edge ], [ %indvars.iv.next80, %61 ]
  %.065 = phi i32 [ 0, %._crit_edge ], [ %.1, %61 ]
  %.04664 = phi i32 [ 0, %._crit_edge ], [ %.147, %61 ]
  %.04863 = phi i32 [ -1, %._crit_edge ], [ %.149, %61 ]
  %49 = getelementptr inbounds nuw [16 x i32], ptr %6, i64 0, i64 %indvars.iv79
  %50 = load i32, ptr %49, align 4, !tbaa !20
  %51 = icmp slt i32 %.04664, %50
  br i1 %51, label %.lr.ph67._crit_edge, label %52

.lr.ph67._crit_edge:                              ; preds = %.lr.ph67
  %.phi.trans.insert = getelementptr inbounds nuw [16 x i32], ptr %7, i64 0, i64 %indvars.iv79
  %.pre = load i32, ptr %.phi.trans.insert, align 4, !tbaa !20
  br label %58

52:                                               ; preds = %.lr.ph67
  %53 = icmp eq i32 %.04664, %50
  br i1 %53, label %54, label %61

54:                                               ; preds = %52
  %55 = getelementptr inbounds nuw [16 x i32], ptr %7, i64 0, i64 %indvars.iv79
  %56 = load i32, ptr %55, align 4, !tbaa !20
  %57 = icmp slt i32 %.065, %56
  br i1 %57, label %58, label %61

58:                                               ; preds = %.lr.ph67._crit_edge, %54
  %59 = phi i32 [ %.pre, %.lr.ph67._crit_edge ], [ %56, %54 ]
  %60 = trunc nuw nsw i64 %indvars.iv79 to i32
  br label %61

61:                                               ; preds = %52, %54, %58
  %.149 = phi i32 [ %60, %58 ], [ %.04863, %54 ], [ %.04863, %52 ]
  %.147 = phi i32 [ %50, %58 ], [ %.04664, %54 ], [ %.04664, %52 ]
  %.1 = phi i32 [ %59, %58 ], [ %.065, %54 ], [ %.065, %52 ]
  %indvars.iv.next80 = add nuw nsw i64 %indvars.iv79, 1
  %exitcond83.not = icmp eq i64 %indvars.iv.next80, %wide.trip.count82
  br i1 %exitcond83.not, label %._crit_edge68, label %.lr.ph67, !llvm.loop !98

._crit_edge68:                                    ; preds = %61
  %62 = sext i32 %.149 to i64
  %63 = getelementptr inbounds i16, ptr %2, i64 %62
  %64 = load i16, ptr %63, align 2, !tbaa !49
  %65 = zext i16 %64 to i32
  store i32 %65, ptr %4, align 4, !tbaa !20
  %wide.trip.count87 = zext nneg i32 %3 to i64
  br label %.lr.ph72

.lr.ph72:                                         ; preds = %._crit_edge68, %77
  %indvars.iv84 = phi i64 [ 0, %._crit_edge68 ], [ %indvars.iv.next85, %77 ]
  %.15170 = phi i32 [ 1, %._crit_edge68 ], [ %.2, %77 ]
  %66 = getelementptr inbounds nuw [16 x i32], ptr %8, i64 0, i64 %indvars.iv84
  %67 = load i32, ptr %66, align 4, !tbaa !20
  %68 = icmp eq i32 %67, %.149
  br i1 %68, label %77, label %69

69:                                               ; preds = %.lr.ph72
  %70 = sext i32 %67 to i64
  %71 = getelementptr inbounds i16, ptr %2, i64 %70
  %72 = load i16, ptr %71, align 2, !tbaa !49
  %73 = zext i16 %72 to i32
  %74 = add nsw i32 %.15170, 1
  %75 = sext i32 %.15170 to i64
  %76 = getelementptr inbounds i32, ptr %4, i64 %75
  store i32 %73, ptr %76, align 4, !tbaa !20
  br label %77

77:                                               ; preds = %.lr.ph72, %69
  %.2 = phi i32 [ %.15170, %.lr.ph72 ], [ %74, %69 ]
  %indvars.iv.next85 = add nuw nsw i64 %indvars.iv84, 1
  %exitcond88.not = icmp eq i64 %indvars.iv.next85, %wide.trip.count87
  br i1 %exitcond88.not, label %._crit_edge73, label %.lr.ph72, !llvm.loop !99

._crit_edge73:                                    ; preds = %77, %._crit_edge.thread
  call void @llvm.lifetime.end.p0(i64 64, ptr nonnull %8) #27
  call void @llvm.lifetime.end.p0(i64 64, ptr nonnull %7) #27
  call void @llvm.lifetime.end.p0(i64 64, ptr nonnull %6) #27
  ret void
}